; Function Attrs: nounwind uwtable
define dso_local i64 @window_last_value(ptr noundef captures(none) %0) local_unnamed_addr #0 {
  %2 = alloca i8, align 1
  %3 = getelementptr inbounds nuw i8, ptr %0, i64 8
  %4 = load ptr, ptr %3, align 8
  call void @llvm.lifetime.start.p0(i64 1, ptr nonnull %2) #6
  %5 = call i64 @WinGetFuncArgInFrame(ptr noundef %4, i32 noundef 0, i32 noundef 0, i32 noundef 2, i1 noundef zeroext true, ptr noundef nonnull %2, ptr noundef null) #6
  %6 = load i8, ptr %2, align 1, !range !6, !noundef !7
  %7 = trunc nuw i8 %6 to i1
  br i1 %7, label %8, label %10

8:                                                ; preds = %1
  %9 = getelementptr inbounds nuw i8, ptr %0, i64 28
  store i8 1, ptr %9, align 4
  br label %10

10:                                               ; preds = %1, %8
  %.0 = phi i64 [ 0, %8 ], [ %5, %1 ]
  call void @llvm.lifetime.end.p0(i64 1, ptr nonnull %2) #6
  ret i64 %.0
}